; ModuleID = '1/25.c'
source_filename = "1/25.c"
target datalayout = "e-m:e-p270:32:32-p271:32:32-p272:64:64-i64:64-f80:128-n8:16:32:64-S128"
target triple = "x86_64-pc-linux-gnu"

@l = dso_local global i32 0, align 4
@.str = private unnamed_addr constant [3 x i8] c"%d\00", align 1
@x = common dso_local global i32 0, align 4
@a = common dso_local global [1000 x i32] zeroinitializer, align 16
@.str.1 = private unnamed_addr constant [4 x i8] c"%d\0A\00", align 1

; Function Attrs: noinline nounwind uwtable
define dso_local i32 @main() #0 {
  %1 = alloca i32, align 4
  %2 = alloca i32, align 4
  %3 = alloca i32, align 4
  %4 = alloca i32, align 4
  %5 = alloca i32, align 4
  %6 = alloca i32, align 4
  %7 = alloca i32, align 4
  %8 = alloca i32, align 4
  store i32 0, i32* %1, align 4
  %9 = call i32 (i8*, ...) @__isoc99_scanf(i8* getelementptr inbounds ([3 x i8], [3 x i8]* @.str, i64 0, i64 0), i32* %6)
  store i32 0, i32* %5, align 4
  br label %10

10:                                               ; preds = %44, %0
  %11 = load i32, i32* %5, align 4
  %12 = load i32, i32* %6, align 4
  %13 = icmp slt i32 %11, %12
  br i1 %13, label %14, label %47

14:                                               ; preds = %10
  store i32 1, i32* %4, align 4
  store i32 0, i32* @l, align 4
  %15 = call i32 (i8*, ...) @__isoc99_scanf(i8* getelementptr inbounds ([3 x i8], [3 x i8]* @.str, i64 0, i64 0), i32* @x)
  store i32 2, i32* %2, align 4
  br label %16

16:                                               ; preds = %33, %14
  %17 = load i32, i32* %2, align 4
  %18 = load i32, i32* @x, align 4
  %19 = icmp sle i32 %17, %18
  br i1 %19, label %20, label %36

20:                                               ; preds = %16
  %21 = load i32, i32* @x, align 4
  %22 = load i32, i32* %2, align 4
  %23 = srem i32 %21, %22
  %24 = icmp eq i32 %23, 0
  br i1 %24, label %25, label %32

25:                                               ; preds = %20
  %26 = load i32, i32* %2, align 4
  %27 = load i32, i32* %4, align 4
  %28 = sext i32 %27 to i64
  %29 = getelementptr inbounds [1000 x i32], [1000 x i32]* @a, i64 0, i64 %28
  store i32 %26, i32* %29, align 4
  %30 = load i32, i32* %4, align 4
  %31 = add nsw i32 %30, 1
  store i32 %31, i32* %4, align 4
  br label %32

32:                                               ; preds = %25, %20
  br label %33

33:                                               ; preds = %32
  %34 = load i32, i32* %2, align 4
  %35 = add nsw i32 %34, 1
  store i32 %35, i32* %2, align 4
  br label %16

36:                                               ; preds = %16
  %37 = load i32, i32* %4, align 4
  %38 = sub nsw i32 %37, 1
  %39 = load i32, i32* @x, align 4
  %40 = call i32 @fff(i32 %38, i32 1, i32 %39)
  %41 = load i32, i32* @l, align 4
  %42 = load i32, i32* @x, align 4
  %43 = call i32 (i8*, ...) @printf(i8* getelementptr inbounds ([4 x i8], [4 x i8]* @.str.1, i64 0, i64 0), i32 %41, i32 %42)
  br label %44

44:                                               ; preds = %36
  %45 = load i32, i32* %5, align 4
  %46 = add nsw i32 %45, 1
  store i32 %46, i32* %5, align 4
  br label %10

47:                                               ; preds = %10
  %48 = load i32, i32* %1, align 4
  ret i32 %48
}

declare dso_local i32 @__isoc99_scanf(i8*, ...) #1

; Function Attrs: noinline nounwind uwtable
define dso_local i32 @fff(i32 %0, i32 %1, i32 %2) #0 {
  %4 = alloca i32, align 4
  %5 = alloca i32, align 4
  %6 = alloca i32, align 4
  %7 = alloca i32, align 4
  %8 = alloca i32, align 4
  %9 = alloca i32, align 4
  %10 = alloca i32, align 4
  %11 = alloca i32, align 4
  %12 = alloca i32, align 4
  %13 = alloca i32, align 4
  store i32 %0, i32* %5, align 4
  store i32 %1, i32* %6, align 4
  store i32 %2, i32* %7, align 4
  %14 = load i32, i32* %6, align 4
  store i32 %14, i32* %8, align 4
  br label %15

15:                                               ; preds = %55, %3
  %16 = load i32, i32* %8, align 4
  %17 = load i32, i32* %5, align 4
  %18 = icmp sle i32 %16, %17
  br i1 %18, label %19, label %58

19:                                               ; preds = %15
  %20 = load i32, i32* %7, align 4
  %21 = load i32, i32* %8, align 4
  %22 = sext i32 %21 to i64
  %23 = getelementptr inbounds [1000 x i32], [1000 x i32]* @a, i64 0, i64 %22
  %24 = load i32, i32* %23, align 4
  %25 = srem i32 %20, %24
  %26 = icmp eq i32 %25, 0
  br i1 %26, label %27, label %54

27:                                               ; preds = %19
  %28 = load i32, i32* %7, align 4
  %29 = load i32, i32* %8, align 4
  %30 = sext i32 %29 to i64
  %31 = getelementptr inbounds [1000 x i32], [1000 x i32]* @a, i64 0, i64 %30
  %32 = load i32, i32* %31, align 4
  %33 = sdiv i32 %28, %32
  store i32 %33, i32* %7, align 4
  %34 = load i32, i32* %7, align 4
  %35 = icmp eq i32 %34, 1
  br i1 %35, label %36, label %39

36:                                               ; preds = %27
  %37 = load i32, i32* @l, align 4
  %38 = add nsw i32 %37, 1
  store i32 %38, i32* @l, align 4
  br label %39

39:                                               ; preds = %36, %27
  %40 = load i32, i32* %7, align 4
  %41 = icmp sgt i32 %40, 1
  br i1 %41, label %42, label %47

42:                                               ; preds = %39
  %43 = load i32, i32* %5, align 4
  %44 = load i32, i32* %8, align 4
  %45 = load i32, i32* %7, align 4
  %46 = call i32 @fff(i32 %43, i32 %44, i32 %45)
  br label %47

47:                                               ; preds = %42, %39
  %48 = load i32, i32* %7, align 4
  %49 = load i32, i32* %8, align 4
  %50 = sext i32 %49 to i64
  %51 = getelementptr inbounds [1000 x i32], [1000 x i32]* @a, i64 0, i64 %50
  %52 = load i32, i32* %51, align 4
  %53 = mul nsw i32 %48, %52
  store i32 %53, i32* %7, align 4
  br label %54

54:                                               ; preds = %47, %19
  br label %55

55:                                               ; preds = %54
  %56 = load i32, i32* %8, align 4
  %57 = add nsw i32 %56, 1
  store i32 %57, i32* %8, align 4
  br label %15

58:                                               ; preds = %15
  %59 = load i32, i32* %4, align 4
  ret i32 %59
}

declare dso_local i32 @printf(i8*, ...) #1


!llvm.module.flags = !{!0}
!llvm.ident = !{!1}

!0 = !{i32 1, !"wchar_size", i32 4}
!1 = !{!"clang version 10.0.0-4ubuntu1 "}
